target datalayout = "e-m:e-p270:32:32-p271:32:32-p272:64:64-i64:64-i128:128-f80:128-n8:16:32:64-S128"
target triple = "x86_64-pc-linux-gnu"

%"class.rocksdb::Cleanable" = type { %"struct.rocksdb::Cleanable::Cleanup" }
%"struct.rocksdb::Cleanable::Cleanup" = type { ptr, ptr, ptr, ptr }

; Function Attrs: mustprogress nounwind uwtable
define void @_ZN7rocksdb9Cleanable15RegisterCleanupEPNS0_7CleanupE(ptr noundef nonnull align 8 dereferenceable(32) %0, ptr noundef %1) #0 align 2 {
  %3 = alloca ptr, align 8
  %4 = alloca ptr, align 8
  store ptr %0, ptr %3, align 8, !tbaa !4
  store ptr %1, ptr %4, align 8, !tbaa !16
  %5 = load ptr, ptr %3, align 8
  %6 = getelementptr inbounds nuw %"class.rocksdb::Cleanable", ptr %5, i32 0, i32 0
  %7 = getelementptr inbounds nuw %"struct.rocksdb::Cleanable::Cleanup", ptr %6, i32 0, i32 0
  %8 = load ptr, ptr %7, align 8, !tbaa !9
  %9 = icmp eq ptr %8, null
  br i1 %9, label %10, label %30

10:                                               ; preds = %2
  %11 = load ptr, ptr %4, align 8, !tbaa !16
  %12 = getelementptr inbounds nuw %"struct.rocksdb::Cleanable::Cleanup", ptr %11, i32 0, i32 0
  %13 = load ptr, ptr %12, align 8, !tbaa !17
  %14 = getelementptr inbounds nuw %"class.rocksdb::Cleanable", ptr %5, i32 0, i32 0
  %15 = getelementptr inbounds nuw %"struct.rocksdb::Cleanable::Cleanup", ptr %14, i32 0, i32 0
  store ptr %13, ptr %15, align 8, !tbaa !9
  %16 = load ptr, ptr %4, align 8, !tbaa !16
  %17 = getelementptr inbounds nuw %"struct.rocksdb::Cleanable::Cleanup", ptr %16, i32 0, i32 1
  %18 = load ptr, ptr %17, align 8, !tbaa !18
  %19 = getelementptr inbounds nuw %"class.rocksdb::Cleanable", ptr %5, i32 0, i32 0
  %20 = getelementptr inbounds nuw %"struct.rocksdb::Cleanable::Cleanup", ptr %19, i32 0, i32 1
  store ptr %18, ptr %20, align 8, !tbaa !14
  %21 = load ptr, ptr %4, align 8, !tbaa !16
  %22 = getelementptr inbounds nuw %"struct.rocksdb::Cleanable::Cleanup", ptr %21, i32 0, i32 2
  %23 = load ptr, ptr %22, align 8, !tbaa !19
  %24 = getelementptr inbounds nuw %"class.rocksdb::Cleanable", ptr %5, i32 0, i32 0
  %25 = getelementptr inbounds nuw %"struct.rocksdb::Cleanable::Cleanup", ptr %24, i32 0, i32 2
  store ptr %23, ptr %25, align 8, !tbaa !15
  %26 = load ptr, ptr %4, align 8, !tbaa !16
  %27 = icmp eq ptr %26, null
  br i1 %27, label %29, label %28

28:                                               ; preds = %10
  call void @_ZdlPvm(ptr noundef %26, i64 noundef 32) #12
  br label %29

29:                                               ; preds = %28, %10
  br label %39

30:                                               ; preds = %2
  %31 = getelementptr inbounds nuw %"class.rocksdb::Cleanable", ptr %5, i32 0, i32 0
  %32 = getelementptr inbounds nuw %"struct.rocksdb::Cleanable::Cleanup", ptr %31, i32 0, i32 3
  %33 = load ptr, ptr %32, align 8, !tbaa !13
  %34 = load ptr, ptr %4, align 8, !tbaa !16
  %35 = getelementptr inbounds nuw %"struct.rocksdb::Cleanable::Cleanup", ptr %34, i32 0, i32 3
  store ptr %33, ptr %35, align 8, !tbaa !20
  %36 = load ptr, ptr %4, align 8, !tbaa !16
  %37 = getelementptr inbounds nuw %"class.rocksdb::Cleanable", ptr %5, i32 0, i32 0
  %38 = getelementptr inbounds nuw %"struct.rocksdb::Cleanable::Cleanup", ptr %37, i32 0, i32 3
  store ptr %36, ptr %38, align 8, !tbaa !13
  br label %39

39:                                               ; preds = %30, %29
  ret void
}