; Function Attrs: mustprogress nounwind uwtable
define void @_ZN7rocksdb9Cleanable15RegisterCleanupEPNS0_7CleanupE(ptr noundef nonnull align 8 captures(none) dereferenceable(32) %0, ptr noundef %1) local_unnamed_addr #6 align 2 {
  %3 = load ptr, ptr %0, align 8, !tbaa !4
  %4 = icmp eq ptr %3, null
  br i1 %4, label %5, label %13

5:                                                ; preds = %2
  %6 = load ptr, ptr %1, align 8, !tbaa !18
  store ptr %6, ptr %0, align 8, !tbaa !4
  %7 = getelementptr inbounds nuw i8, ptr %1, i64 8
  %8 = load ptr, ptr %7, align 8, !tbaa !15
  %9 = getelementptr inbounds nuw i8, ptr %0, i64 8
  store ptr %8, ptr %9, align 8, !tbaa !21
  %10 = getelementptr inbounds nuw i8, ptr %1, i64 16
  %11 = load ptr, ptr %10, align 8, !tbaa !16
  %12 = getelementptr inbounds nuw i8, ptr %0, i64 16
  store ptr %11, ptr %12, align 8, !tbaa !22
  tail call void @_ZdlPvm(ptr noundef %1, i64 noundef 32) #14
  br label %17

13:                                               ; preds = %2
  %14 = getelementptr inbounds nuw i8, ptr %0, i64 24
  %15 = load ptr, ptr %14, align 8, !tbaa !11
  %16 = getelementptr inbounds nuw i8, ptr %1, i64 24
  store ptr %15, ptr %16, align 8, !tbaa !17
  store ptr %1, ptr %14, align 8, !tbaa !11
  br label %17

17:                                               ; preds = %5, %13
  ret void
}